target datalayout = "e-m:e-p270:32:32-p271:32:32-p272:64:64-i64:64-i128:128-f80:128-n8:16:32:64-S128"
target triple = "x86_64-unknown-linux-gnu"

%"class.cvc5::internal::NodeBuilder" = type <{ %"class.cvc5::internal::expr::NodeValue", [10 x ptr], ptr, ptr, i32, [4 x i8] }>
%"class.cvc5::internal::expr::NodeValue" = type { i64, i16, i32, [0 x ptr] }

; Function Attrs: mustprogress nounwind uwtable
define linkonce_odr hidden void @_ZN4cvc58internal4expr9NodeValueC2Ev(ptr noundef nonnull align 8 dereferenceable(16) %this) unnamed_addr #5 comdat align 2 {
entry:
  %this.addr = alloca ptr, align 8
  store ptr %this, ptr %this.addr, align 8
  ret void
}

; Function Attrs: mustprogress uwtable
define hidden void @_ZN4cvc58internal11NodeBuilderC2ERKS1_(ptr noundef nonnull align 8 dereferenceable(116) %this, ptr noundef nonnull align 8 dereferenceable(116) %nb) unnamed_addr #4 align 2 {
entry:
  %this.addr = alloca ptr, align 8
  %nb.addr = alloca ptr, align 8
  store ptr %this, ptr %this.addr, align 8
  store ptr %nb, ptr %nb.addr, align 8
  %this1 = load ptr, ptr %this.addr, align 8
  %d_inlineNv = getelementptr inbounds %"class.cvc5::internal::NodeBuilder", ptr %this1, i32 0, i32 0
  call void @_ZN4cvc58internal4expr9NodeValueC2Ev(ptr noundef nonnull align 8 dereferenceable(16) %d_inlineNv)
  %d_nv = getelementptr inbounds %"class.cvc5::internal::NodeBuilder", ptr %this1, i32 0, i32 2
  %d_inlineNv2 = getelementptr inbounds %"class.cvc5::internal::NodeBuilder", ptr %this1, i32 0, i32 0
  store ptr %d_inlineNv2, ptr %d_nv, align 8
  %d_nm = getelementptr inbounds %"class.cvc5::internal::NodeBuilder", ptr %this1, i32 0, i32 3
  %0 = load ptr, ptr %nb.addr, align 8
  %d_nm3 = getelementptr inbounds %"class.cvc5::internal::NodeBuilder", ptr %0, i32 0, i32 3
  %1 = load ptr, ptr %d_nm3, align 8
  store ptr %1, ptr %d_nm, align 8
  %d_nvMaxChildren = getelementptr inbounds %"class.cvc5::internal::NodeBuilder", ptr %this1, i32 0, i32 4
  store i32 10, ptr %d_nvMaxChildren, align 8
  %2 = load ptr, ptr %nb.addr, align 8
  %d_nv4 = getelementptr inbounds %"class.cvc5::internal::NodeBuilder", ptr %2, i32 0, i32 2
  %3 = load ptr, ptr %d_nv4, align 8
  %bf.load = load i64, ptr %3, align 8
  %bf.clear = and i64 %bf.load, 1099511627775
  %d_inlineNv5 = getelementptr inbounds %"class.cvc5::internal::NodeBuilder", ptr %this1, i32 0, i32 0
  %bf.load6 = load i64, ptr %d_inlineNv5, align 8
  %bf.value = and i64 %bf.clear, 1099511627775
  %bf.clear7 = and i64 %bf.load6, -1099511627776
  %bf.set = or i64 %bf.clear7, %bf.value
  store i64 %bf.set, ptr %d_inlineNv5, align 8
  %d_inlineNv8 = getelementptr inbounds %"class.cvc5::internal::NodeBuilder", ptr %this1, i32 0, i32 0
  %bf.load9 = load i64, ptr %d_inlineNv8, align 8
  %bf.clear10 = and i64 %bf.load9, -1152920405095219201
  %bf.set11 = or i64 %bf.clear10, 0
  store i64 %bf.set11, ptr %d_inlineNv8, align 8
  %4 = load ptr, ptr %nb.addr, align 8
  %d_nv12 = getelementptr inbounds %"class.cvc5::internal::NodeBuilder", ptr %4, i32 0, i32 2
  %5 = load ptr, ptr %d_nv12, align 8
  %d_kind = getelementptr inbounds %"class.cvc5::internal::expr::NodeValue", ptr %5, i32 0, i32 1
  %bf.load13 = load i16, ptr %d_kind, align 8
  %bf.clear14 = and i16 %bf.load13, 1023
  %bf.cast = zext i16 %bf.clear14 to i32
  %d_inlineNv15 = getelementptr inbounds %"class.cvc5::internal::NodeBuilder", ptr %this1, i32 0, i32 0
  %d_kind16 = getelementptr inbounds %"class.cvc5::internal::expr::NodeValue", ptr %d_inlineNv15, i32 0, i32 1
  %6 = trunc i32 %bf.cast to i16
  %bf.load17 = load i16, ptr %d_kind16, align 8
  %bf.value18 = and i16 %6, 1023
  %bf.clear19 = and i16 %bf.load17, -1024
  %bf.set20 = or i16 %bf.clear19, %bf.value18
  store i16 %bf.set20, ptr %d_kind16, align 8
  %d_inlineNv21 = getelementptr inbounds %"class.cvc5::internal::NodeBuilder", ptr %this1, i32 0, i32 0
  %d_nchildren = getelementptr inbounds %"class.cvc5::internal::expr::NodeValue", ptr %d_inlineNv21, i32 0, i32 2
  %bf.load22 = load i32, ptr %d_nchildren, align 4
  %bf.clear23 = and i32 %bf.load22, -67108864
  %bf.set24 = or i32 %bf.clear23, 0
  store i32 %bf.set24, ptr %d_nchildren, align 4
  %7 = load ptr, ptr %nb.addr, align 8
  call void @_ZN4cvc58internal11NodeBuilder12internalCopyERKS1_(ptr noundef nonnull align 8 dereferenceable(116) %this1, ptr noundef nonnull align 8 dereferenceable(116) %7)
  ret void
}