; Function Attrs: mustprogress uwtable
define hidden void @_ZN4cvc58internal11NodeBuilderC2ERKS1_(ptr noundef nonnull align 8 dereferenceable(116) %this, ptr nocapture noundef nonnull readonly align 8 dereferenceable(116) %nb) unnamed_addr #3 align 2 {
entry:
  %d_nv = getelementptr inbounds i8, ptr %this, i64 96
  store ptr %this, ptr %d_nv, align 8
  %d_nm = getelementptr inbounds i8, ptr %this, i64 104
  %d_nm3 = getelementptr inbounds i8, ptr %nb, i64 104
  %0 = load ptr, ptr %d_nm3, align 8
  store ptr %0, ptr %d_nm, align 8
  %d_nvMaxChildren = getelementptr inbounds i8, ptr %this, i64 112
  store i32 10, ptr %d_nvMaxChildren, align 8
  %d_nv4 = getelementptr inbounds i8, ptr %nb, i64 96
  %1 = load ptr, ptr %d_nv4, align 8
  %bf.load = load i64, ptr %1, align 8
  %bf.clear = and i64 %bf.load, 1099511627775
  %bf.load6 = load i64, ptr %this, align 8
  %bf.clear7 = and i64 %bf.load6, -1152921504606846976
  %bf.set = or disjoint i64 %bf.clear7, %bf.clear
  store i64 %bf.set, ptr %this, align 8
  %2 = load ptr, ptr %d_nv4, align 8
  %d_kind = getelementptr inbounds i8, ptr %2, i64 8
  %bf.load13 = load i16, ptr %d_kind, align 8
  %bf.clear14 = and i16 %bf.load13, 1023
  %d_kind16 = getelementptr inbounds i8, ptr %this, i64 8
  %bf.load17 = load i16, ptr %d_kind16, align 8
  %bf.clear19 = and i16 %bf.load17, -1024
  %bf.set20 = or disjoint i16 %bf.clear19, %bf.clear14
  store i16 %bf.set20, ptr %d_kind16, align 8
  %d_nchildren = getelementptr inbounds i8, ptr %this, i64 12
  %bf.load22 = load i32, ptr %d_nchildren, align 4
  %bf.clear23 = and i32 %bf.load22, -67108864
  store i32 %bf.clear23, ptr %d_nchildren, align 4
  tail call void @_ZN4cvc58internal11NodeBuilder12internalCopyERKS1_(ptr noundef nonnull align 8 dereferenceable(116) %this, ptr noundef nonnull align 8 dereferenceable(116) %nb)
  ret void
}